target datalayout = "e-m:e-p270:32:32-p271:32:32-p272:64:64-i64:64-i128:128-f80:128-n8:16:32:64-S128"
target triple = "x86_64-unknown-linux-gnu"

@_ZZN8facebook5velox6crypto10MD5Context14DigestToBase16EPKhPcE9HEX_CODES = internal constant [17 x i8] c"0123456789abcdef\00", align 16

; Function Attrs: mustprogress nounwind uwtable
define void @_ZN8facebook5velox6crypto10MD5Context14DigestToBase16EPKhPc(ptr noundef %digest, ptr noundef %zbuf) #0 align 2 {
entry:
  %digest.addr = alloca ptr, align 8
  %zbuf.addr = alloca ptr, align 8
  %i = alloca i32, align 4
  %j = alloca i32, align 4
  %a = alloca i32, align 4
  store ptr %digest, ptr %digest.addr, align 8
  store ptr %zbuf, ptr %zbuf.addr, align 8
  store i32 0, ptr %i, align 4
  store i32 0, ptr %j, align 4
  br label %for.cond

for.cond:                                         ; preds = %for.inc, %entry
  %0 = load i32, ptr %i, align 4
  %conv = sext i32 %0 to i64
  %cmp = icmp ult i64 %conv, 16
  br i1 %cmp, label %for.body, label %for.end

for.body:                                         ; preds = %for.cond
  %1 = load ptr, ptr %digest.addr, align 8
  %2 = load i32, ptr %i, align 4
  %idxprom = sext i32 %2 to i64
  %arrayidx = getelementptr inbounds i8, ptr %1, i64 %idxprom
  %3 = load i8, ptr %arrayidx, align 1
  %conv1 = zext i8 %3 to i32
  store i32 %conv1, ptr %a, align 4
  %4 = load i32, ptr %a, align 4
  %shr = ashr i32 %4, 4
  %and = and i32 %shr, 15
  %idxprom2 = sext i32 %and to i64
  %arrayidx3 = getelementptr inbounds [17 x i8], ptr @_ZZN8facebook5velox6crypto10MD5Context14DigestToBase16EPKhPcE9HEX_CODES, i64 0, i64 %idxprom2
  %5 = load i8, ptr %arrayidx3, align 1
  %6 = load ptr, ptr %zbuf.addr, align 8
  %7 = load i32, ptr %j, align 4
  %inc = add nsw i32 %7, 1
  store i32 %inc, ptr %j, align 4
  %idxprom4 = sext i32 %7 to i64
  %arrayidx5 = getelementptr inbounds i8, ptr %6, i64 %idxprom4
  store i8 %5, ptr %arrayidx5, align 1
  %8 = load i32, ptr %a, align 4
  %and6 = and i32 %8, 15
  %idxprom7 = sext i32 %and6 to i64
  %arrayidx8 = getelementptr inbounds [17 x i8], ptr @_ZZN8facebook5velox6crypto10MD5Context14DigestToBase16EPKhPcE9HEX_CODES, i64 0, i64 %idxprom7
  %9 = load i8, ptr %arrayidx8, align 1
  %10 = load ptr, ptr %zbuf.addr, align 8
  %11 = load i32, ptr %j, align 4
  %inc9 = add nsw i32 %11, 1
  store i32 %inc9, ptr %j, align 4
  %idxprom10 = sext i32 %11 to i64
  %arrayidx11 = getelementptr inbounds i8, ptr %10, i64 %idxprom10
  store i8 %9, ptr %arrayidx11, align 1
  br label %for.inc

for.inc:                                          ; preds = %for.body
  %12 = load i32, ptr %i, align 4
  %inc12 = add nsw i32 %12, 1
  store i32 %inc12, ptr %i, align 4
  br label %for.cond, !llvm.loop !7

for.end:                                          ; preds = %for.cond
  ret void
}