; Function Attrs: mustprogress nofree norecurse nosync nounwind memory(argmem: readwrite) uwtable
define void @_ZN8facebook5velox6crypto10MD5Context14DigestToBase16EPKhPc(ptr nocapture noundef readonly %digest, ptr nocapture noundef writeonly %zbuf) local_unnamed_addr #5 align 2 {
entry:
  br label %for.body

for.body:                                         ; preds = %entry, %for.body
  %indvars.iv8 = phi i64 [ 0, %entry ], [ %indvars.iv.next9, %for.body ]
  %indvars.iv = phi i64 [ 0, %entry ], [ %indvars.iv.next, %for.body ]
  %arrayidx = getelementptr inbounds i8, ptr %digest, i64 %indvars.iv
  %0 = load i8, ptr %arrayidx, align 1
  %conv1 = zext i8 %0 to i32
  %shr = lshr i32 %conv1, 4
  %idxprom2 = zext nneg i32 %shr to i64
  %arrayidx3 = getelementptr inbounds [17 x i8], ptr @_ZZN8facebook5velox6crypto10MD5Context14DigestToBase16EPKhPcE9HEX_CODES, i64 0, i64 %idxprom2
  %1 = load i8, ptr %arrayidx3, align 1
  %2 = or disjoint i64 %indvars.iv8, 1
  %arrayidx5 = getelementptr inbounds i8, ptr %zbuf, i64 %indvars.iv8
  store i8 %1, ptr %arrayidx5, align 1
  %and6 = and i32 %conv1, 15
  %idxprom7 = zext nneg i32 %and6 to i64
  %arrayidx8 = getelementptr inbounds [17 x i8], ptr @_ZZN8facebook5velox6crypto10MD5Context14DigestToBase16EPKhPcE9HEX_CODES, i64 0, i64 %idxprom7
  %3 = load i8, ptr %arrayidx8, align 1
  %indvars.iv.next9 = add nuw nsw i64 %indvars.iv8, 2
  %arrayidx11 = getelementptr inbounds i8, ptr %zbuf, i64 %2
  store i8 %3, ptr %arrayidx11, align 1
  %indvars.iv.next = add nuw nsw i64 %indvars.iv, 1
  %exitcond.not = icmp eq i64 %indvars.iv.next, 16
  br i1 %exitcond.not, label %for.end, label %for.body, !llvm.loop !6

for.end:                                          ; preds = %for.body
  ret void
}